target datalayout = "e-m:e-p270:32:32-p271:32:32-p272:64:64-i64:64-i128:128-f80:128-n8:16:32:64-S128"
target triple = "x86_64-pc-linux-gnu"

%struct.avifScalingMode = type { %struct.avifFraction, %struct.avifFraction }
%struct.avifFraction = type { i32, i32 }
%struct.avifEncoder = type { i32, i32, i32, i32, i64, i32, i32, i32, i32, i32, i32, i32, i32, i32, i32, i32, %struct.avifScalingMode, %struct.avifIOStats, %struct.avifDiagnostics, ptr, ptr, i32 }
%struct.avifIOStats = type { i64, i64 }
%struct.avifDiagnostics = type { [256 x i8] }

; Function Attrs: nounwind uwtable
define hidden i32 @avifEncoderAddImageGrid(ptr noundef %0, i32 noundef %1, i32 noundef %2, ptr noundef %3, i32 noundef %4) #0 {
  %6 = alloca i32, align 4
  %7 = alloca ptr, align 8
  %8 = alloca i32, align 4
  %9 = alloca i32, align 4
  %10 = alloca ptr, align 8
  %11 = alloca i32, align 4
  store ptr %0, ptr %7, align 8
  store i32 %1, ptr %8, align 4
  store i32 %2, ptr %9, align 4
  store ptr %3, ptr %10, align 8
  store i32 %4, ptr %11, align 4
  %12 = load ptr, ptr %7, align 8
  %13 = getelementptr inbounds nuw %struct.avifEncoder, ptr %12, i32 0, i32 18
  call void @avifDiagnosticsClearError(ptr noundef %13)
  %14 = load i32, ptr %8, align 4
  %15 = icmp eq i32 %14, 0
  br i1 %15, label %25, label %16

16:                                               ; preds = %5
  %17 = load i32, ptr %8, align 4
  %18 = icmp ugt i32 %17, 256
  br i1 %18, label %25, label %19

19:                                               ; preds = %16
  %20 = load i32, ptr %9, align 4
  %21 = icmp eq i32 %20, 0
  br i1 %21, label %25, label %22

22:                                               ; preds = %19
  %23 = load i32, ptr %9, align 4
  %24 = icmp ugt i32 %23, 256
  br i1 %24, label %25, label %26

25:                                               ; preds = %22, %19, %16, %5
  store i32 18, ptr %6, align 4
  br label %41

26:                                               ; preds = %22
  %27 = load ptr, ptr %7, align 8
  %28 = getelementptr inbounds nuw %struct.avifEncoder, ptr %27, i32 0, i32 6
  %29 = load i32, ptr %28, align 4
  %30 = icmp eq i32 %29, 0
  br i1 %30, label %31, label %34

31:                                               ; preds = %26
  %32 = load i32, ptr %11, align 4
  %33 = or i32 %32, 2
  store i32 %33, ptr %11, align 4
  br label %34

34:                                               ; preds = %31, %26
  %35 = load ptr, ptr %7, align 8
  %36 = load i32, ptr %8, align 4
  %37 = load i32, ptr %9, align 4
  %38 = load ptr, ptr %10, align 8
  %39 = load i32, ptr %11, align 4
  %40 = call i32 @avifEncoderAddImageInternal(ptr noundef %35, i32 noundef %36, i32 noundef %37, ptr noundef %38, i64 noundef 1, i32 noundef %39)
  store i32 %40, ptr %6, align 4
  br label %41

41:                                               ; preds = %34, %25
  %42 = load i32, ptr %6, align 4
  ret i32 %42
}