; Function Attrs: nounwind uwtable
define hidden i32 @avifEncoderAddImageGrid(ptr noundef %0, i32 noundef %1, i32 noundef %2, ptr nocapture noundef readonly %3, i32 noundef %4) local_unnamed_addr #1 {
  %6 = getelementptr inbounds nuw i8, ptr %0, i64 104
  tail call void @avifDiagnosticsClearError(ptr noundef nonnull %6) #13
  %7 = add i32 %1, -257
  %or.cond = icmp ult i32 %7, -256
  %8 = add i32 %2, -257
  %9 = icmp ult i32 %8, -256
  %or.cond5 = or i1 %or.cond, %9
  br i1 %or.cond5, label %16, label %10

10:                                               ; preds = %5
  %11 = getelementptr inbounds nuw i8, ptr %0, i64 28
  %12 = load i32, ptr %11, align 4
  %13 = icmp eq i32 %12, 0
  %14 = or i32 %4, 2
  %spec.select = select i1 %13, i32 %14, i32 %4
  %15 = tail call fastcc i32 @avifEncoderAddImageInternal(ptr noundef %0, i32 noundef %1, i32 noundef %2, ptr noundef %3, i64 noundef 1, i32 noundef %spec.select)
  br label %16

16:                                               ; preds = %5, %10
  %.017 = phi i32 [ %15, %10 ], [ 18, %5 ]
  ret i32 %.017
}